; Function Attrs: mustprogress uwtable
define noundef i32 @_ZNK4LIEF2PE11ContentInfo16digest_algorithmEv(ptr nocapture noundef nonnull readonly align 8 dereferenceable(16) %0) local_unnamed_addr #1 align 2 {
  %2 = getelementptr inbounds i8, ptr %0, i64 8
  %3 = load ptr, ptr %2, align 8
  %4 = tail call noundef zeroext i1 @_ZN4LIEF2PE15SpcIndirectData7classofEPKNS0_11ContentInfo7ContentE(ptr noundef %3)
  br i1 %4, label %5, label %9

5:                                                ; preds = %1
  %6 = load ptr, ptr %2, align 8
  %7 = getelementptr inbounds i8, ptr %6, i64 76
  %8 = load i32, ptr %7, align 4
  br label %9

9:                                                ; preds = %1, %5
  %.0 = phi i32 [ %8, %5 ], [ 0, %1 ]
  ret i32 %.0
}